target datalayout = "e-m:e-p270:32:32-p271:32:32-p272:64:64-i64:64-i128:128-f80:128-n8:16:32:64-S128"
target triple = "x86_64-pc-linux-gnu"

%struct.rofr_data = type { i64, ptr, i64, i64 }

; Function Attrs: nounwind sspstrong uwtable
define internal i64 @reachable_objects_from_root(i64 noundef %0) #0 {
  %2 = alloca i64, align 8
  %3 = alloca %struct.rofr_data, align 8
  %4 = alloca i64, align 8
  store i64 %0, ptr %2, align 8, !tbaa !6
  call void @llvm.lifetime.start.p0(i64 32, ptr %3) #15
  call void @llvm.lifetime.start.p0(i64 8, ptr %4) #15
  %5 = call i64 @rb_ident_hash_new()
  %6 = getelementptr inbounds nuw %struct.rofr_data, ptr %3, i32 0, i32 0
  store i64 %5, ptr %6, align 8, !tbaa !29
  store i64 %5, ptr %4, align 8, !tbaa !6
  %7 = getelementptr inbounds nuw %struct.rofr_data, ptr %3, i32 0, i32 1
  store ptr null, ptr %7, align 8, !tbaa !32
  call void @rb_objspace_reachable_objects_from_root(ptr noundef @reachable_object_from_root_i, ptr noundef %3)
  %8 = load i64, ptr %4, align 8, !tbaa !6
  %9 = load i64, ptr %4, align 8, !tbaa !6
  call void @rb_hash_foreach(i64 noundef %8, ptr noundef @collect_values_of_values, i64 noundef %9)
  %10 = load i64, ptr %4, align 8, !tbaa !6
  call void @llvm.lifetime.end.p0(i64 8, ptr %4) #15
  call void @llvm.lifetime.end.p0(i64 32, ptr %3) #15
  ret i64 %10
}