; Function Attrs: nounwind sspstrong uwtable
define internal i64 @reachable_objects_from_root(i64 %0) #0 {
  %2 = alloca %struct.rofr_data, align 8
  call void @llvm.lifetime.start.p0(i64 32, ptr nonnull %2) #7
  %3 = tail call i64 @rb_ident_hash_new() #7
  store i64 %3, ptr %2, align 8, !tbaa !28
  %4 = getelementptr inbounds nuw i8, ptr %2, i64 8
  store ptr null, ptr %4, align 8, !tbaa !31
  call void @rb_objspace_reachable_objects_from_root(ptr noundef nonnull @reachable_object_from_root_i, ptr noundef nonnull %2) #7
  call void @rb_hash_foreach(i64 noundef %3, ptr noundef nonnull @collect_values_of_values, i64 noundef %3) #7
  call void @llvm.lifetime.end.p0(i64 32, ptr nonnull %2) #7
  ret i64 %3
}